target datalayout = "e-m:e-p270:32:32-p271:32:32-p272:64:64-i64:64-i128:128-f80:128-n8:16:32:64-S128"
target triple = "x86_64-pc-linux-gnu"

%struct.H5_user_cb_state_t = type { %struct.H5E_user_cb_state_t }
%struct.H5E_user_cb_state_t = type { i32, %union.anon, ptr }
%union.anon = type { ptr }
%struct.H5VL_class_t = type { i32, i32, ptr, i32, i64, ptr, ptr, %struct.H5VL_info_class_t, %struct.H5VL_wrap_class_t, %struct.H5VL_attr_class_t, %struct.H5VL_dataset_class_t, %struct.H5VL_datatype_class_t, %struct.H5VL_file_class_t, %struct.H5VL_group_class_t, %struct.H5VL_link_class_t, %struct.H5VL_object_class_t, %struct.H5VL_introspect_class_t, %struct.H5VL_request_class_t, %struct.H5VL_blob_class_t, %struct.H5VL_token_class_t, ptr }
%struct.H5VL_info_class_t = type { i64, ptr, ptr, ptr, ptr, ptr }
%struct.H5VL_wrap_class_t = type { ptr, ptr, ptr, ptr, ptr }
%struct.H5VL_attr_class_t = type { ptr, ptr, ptr, ptr, ptr, ptr, ptr, ptr }
%struct.H5VL_dataset_class_t = type { ptr, ptr, ptr, ptr, ptr, ptr, ptr, ptr }
%struct.H5VL_datatype_class_t = type { ptr, ptr, ptr, ptr, ptr, ptr }
%struct.H5VL_file_class_t = type { ptr, ptr, ptr, ptr, ptr, ptr }
%struct.H5VL_group_class_t = type { ptr, ptr, ptr, ptr, ptr, ptr }
%struct.H5VL_link_class_t = type { ptr, ptr, ptr, ptr, ptr, ptr }
%struct.H5VL_object_class_t = type { ptr, ptr, ptr, ptr, ptr }
%struct.H5VL_introspect_class_t = type { ptr, ptr, ptr }
%struct.H5VL_request_class_t = type { ptr, ptr, ptr, ptr, ptr, ptr }
%struct.H5VL_blob_class_t = type { ptr, ptr, ptr, ptr }
%struct.H5VL_token_class_t = type { ptr, ptr, ptr }

@.str = private unnamed_addr constant [106 x i8] c"generated/home/dtcxzyw/WorkSpace/Projects/compilers/llvm-opt-benchmark/bench/hdf5/hdf5/src/H5VLcallback.c\00", align 1
@H5E_LIB_g = external global i64, align 8
@H5E_CANTSET_g = external global i64, align 8
@.str.2 = private unnamed_addr constant [37 x i8] c"preparation for user callback failed\00", align 1
@H5E_CANTRESTORE_g = external global i64, align 8
@H5E_VOL_g = external global i64, align 8
@H5VL_init_g = external global i8, align 1
@H5_libterm_g = external global i8, align 1
@H5E_FUNC_g = external global i64, align 8
@H5E_CANTINIT_g = external global i64, align 8
@.str.5 = private unnamed_addr constant [32 x i8] c"interface initialization failed\00", align 1
@H5E_CANTGET_g = external global i64, align 8
@__func__.H5VL_unwrap_object = private unnamed_addr constant [19 x i8] c"H5VL_unwrap_object\00", align 1
@.str.21 = private unnamed_addr constant [20 x i8] c"can't unwrap object\00", align 1

; Function Attrs: nounwind uwtable
define ptr @H5VL_unwrap_object(ptr noundef %0, ptr noundef %1) #0 {
  %3 = alloca ptr, align 8
  %4 = alloca ptr, align 8
  %5 = alloca ptr, align 8
  %6 = alloca ptr, align 8
  %7 = alloca i8, align 1
  %8 = alloca %struct.H5_user_cb_state_t, align 8
  %9 = alloca i32, align 4
  store ptr %0, ptr %4, align 8, !tbaa !54
  store ptr %1, ptr %5, align 8, !tbaa !42
  call void @llvm.lifetime.start.p0(i64 8, ptr %6) #8
  store ptr null, ptr %6, align 8, !tbaa !42
  call void @llvm.lifetime.start.p0(i64 1, ptr %7) #8
  store i8 0, ptr %7, align 1, !tbaa !9
  %10 = load i8, ptr @H5VL_init_g, align 1, !tbaa !9, !range !14, !noundef !15
  %11 = trunc i8 %10 to i1
  br i1 %11, label %16, label %12

12:                                               ; preds = %2
  %13 = load i8, ptr @H5_libterm_g, align 1, !tbaa !9, !range !14, !noundef !15
  %14 = trunc i8 %13 to i1
  %15 = xor i1 %14, true
  br label %16

16:                                               ; preds = %12, %2
  %17 = phi i1 [ false, %2 ], [ %15, %12 ]
  %18 = xor i1 %17, true
  %19 = xor i1 %18, true
  %20 = zext i1 %19 to i32
  %21 = sext i32 %20 to i64
  %22 = call i64 @llvm.expect.i64(i64 %21, i64 0)
  %23 = icmp ne i64 %22, 0
  br i1 %23, label %24, label %47

24:                                               ; preds = %16
  store i8 1, ptr @H5VL_init_g, align 1, !tbaa !9
  %25 = call i32 @H5VL__init_package()
  %26 = icmp slt i32 %25, 0
  br i1 %26, label %27, label %46

27:                                               ; preds = %24
  store i8 0, ptr @H5VL_init_g, align 1, !tbaa !9
  br label %28

28:                                               ; preds = %27
  br label %29

29:                                               ; preds = %28
  br label %30

30:                                               ; preds = %29
  %31 = load i64, ptr @H5E_FUNC_g, align 8, !tbaa !3
  %32 = load i64, ptr @H5E_CANTINIT_g, align 8, !tbaa !3
  %33 = call i32 (ptr, ptr, i32, i64, i64, ptr, ...) @H5E_printf_stack(ptr noundef @.str, ptr noundef @__func__.H5VL_unwrap_object, i32 noundef 932, i64 noundef %31, i64 noundef %32, ptr noundef @.str.5)
  br label %34

34:                                               ; preds = %30
  br label %35

35:                                               ; preds = %34
  store i8 1, ptr %7, align 1, !tbaa !9
  %36 = load i8, ptr %7, align 1, !tbaa !9, !range !14, !noundef !15
  %37 = trunc i8 %36 to i1
  %38 = zext i1 %37 to i8
  store i8 %38, ptr %7, align 1, !tbaa !9
  br label %39

39:                                               ; preds = %35
  br label %40

40:                                               ; preds = %39
  br label %41

41:                                               ; preds = %40
  store ptr null, ptr %6, align 8, !tbaa !42
  br label %147

42:                                               ; No predecessors!
  br label %43

43:                                               ; preds = %42
  br label %44

44:                                               ; preds = %43
  br label %45

45:                                               ; preds = %44
  br label %46

46:                                               ; preds = %45, %24
  br label %47

47:                                               ; preds = %46, %16
  %48 = load i8, ptr @H5VL_init_g, align 1, !tbaa !9, !range !14, !noundef !15
  %49 = trunc i8 %48 to i1
  br i1 %49, label %54, label %50

50:                                               ; preds = %47
  %51 = load i8, ptr @H5_libterm_g, align 1, !tbaa !9, !range !14, !noundef !15
  %52 = trunc i8 %51 to i1
  %53 = xor i1 %52, true
  br label %54

54:                                               ; preds = %50, %47
  %55 = phi i1 [ true, %47 ], [ %53, %50 ]
  %56 = xor i1 %55, true
  %57 = xor i1 %56, true
  %58 = zext i1 %57 to i32
  %59 = sext i32 %58 to i64
  %60 = call i64 @llvm.expect.i64(i64 %59, i64 1)
  %61 = icmp ne i64 %60, 0
  br i1 %61, label %62, label %148

62:                                               ; preds = %54
  %63 = load ptr, ptr %4, align 8, !tbaa !54
  %64 = getelementptr inbounds nuw %struct.H5VL_class_t, ptr %63, i32 0, i32 8
  %65 = getelementptr inbounds nuw %struct.H5VL_wrap_class_t, ptr %64, i32 0, i32 2
  %66 = load ptr, ptr %65, align 8, !tbaa !55
  %67 = icmp ne ptr %66, null
  br i1 %67, label %68, label %144

68:                                               ; preds = %62
  call void @llvm.lifetime.start.p0(i64 24, ptr %8) #8
  %69 = call i32 @H5_user_cb_prepare(ptr noundef %8)
  %70 = icmp slt i32 %69, 0
  br i1 %70, label %71, label %90

71:                                               ; preds = %68
  br label %72

72:                                               ; preds = %71
  br label %73

73:                                               ; preds = %72
  br label %74

74:                                               ; preds = %73
  %75 = load i64, ptr @H5E_LIB_g, align 8, !tbaa !3
  %76 = load i64, ptr @H5E_CANTSET_g, align 8, !tbaa !3
  %77 = call i32 (ptr, ptr, i32, i64, i64, ptr, ...) @H5E_printf_stack(ptr noundef @.str, ptr noundef @__func__.H5VL_unwrap_object, i32 noundef 941, i64 noundef %75, i64 noundef %76, ptr noundef @.str.2)
  br label %78

78:                                               ; preds = %74
  br label %79

79:                                               ; preds = %78
  store i8 1, ptr %7, align 1, !tbaa !9
  %80 = load i8, ptr %7, align 1, !tbaa !9, !range !14, !noundef !15
  %81 = trunc i8 %80 to i1
  %82 = zext i1 %81 to i8
  store i8 %82, ptr %7, align 1, !tbaa !9
  br label %83

83:                                               ; preds = %79
  br label %84

84:                                               ; preds = %83
  br label %85

85:                                               ; preds = %84
  store ptr null, ptr %6, align 8, !tbaa !42
  store i32 10, ptr %9, align 4
  br label %119

86:                                               ; No predecessors!
  br label %87

87:                                               ; preds = %86
  br label %88

88:                                               ; preds = %87
  br label %89

89:                                               ; preds = %88
  br label %90

90:                                               ; preds = %89, %68
  %91 = load ptr, ptr %4, align 8, !tbaa !54
  %92 = getelementptr inbounds nuw %struct.H5VL_class_t, ptr %91, i32 0, i32 8
  %93 = getelementptr inbounds nuw %struct.H5VL_wrap_class_t, ptr %92, i32 0, i32 3
  %94 = load ptr, ptr %93, align 8, !tbaa !56
  %95 = load ptr, ptr %5, align 8, !tbaa !42
  %96 = call ptr %94(ptr noundef %95)
  store ptr %96, ptr %6, align 8, !tbaa !42
  %97 = call i32 @H5_user_cb_restore(ptr noundef %8)
  %98 = icmp slt i32 %97, 0
  br i1 %98, label %99, label %118

99:                                               ; preds = %90
  br label %100

100:                                              ; preds = %99
  br label %101

101:                                              ; preds = %100
  br label %102

102:                                              ; preds = %101
  %103 = load i64, ptr @H5E_LIB_g, align 8, !tbaa !3
  %104 = load i64, ptr @H5E_CANTRESTORE_g, align 8, !tbaa !3
  %105 = call i32 (ptr, ptr, i32, i64, i64, ptr, ...) @H5E_printf_stack(ptr noundef @.str, ptr noundef @__func__.H5VL_unwrap_object, i32 noundef 946, i64 noundef %103, i64 noundef %104, ptr noundef @.str.2)
  br label %106

106:                                              ; preds = %102
  br label %107

107:                                              ; preds = %106
  store i8 1, ptr %7, align 1, !tbaa !9
  %108 = load i8, ptr %7, align 1, !tbaa !9, !range !14, !noundef !15
  %109 = trunc i8 %108 to i1
  %110 = zext i1 %109 to i8
  store i8 %110, ptr %7, align 1, !tbaa !9
  br label %111

111:                                              ; preds = %107
  br label %112

112:                                              ; preds = %111
  br label %113

113:                                              ; preds = %112
  store ptr null, ptr %6, align 8, !tbaa !42
  store i32 10, ptr %9, align 4
  br label %119

114:                                              ; No predecessors!
  br label %115

115:                                              ; preds = %114
  br label %116

116:                                              ; preds = %115
  br label %117

117:                                              ; preds = %116
  br label %118

118:                                              ; preds = %117, %90
  store i32 0, ptr %9, align 4
  br label %119

119:                                              ; preds = %113, %85, %118
  call void @llvm.lifetime.end.p0(i64 24, ptr %8) #8
  %120 = load i32, ptr %9, align 4
  switch i32 %120, label %150 [
    i32 0, label %121
    i32 10, label %147
  ]

121:                                              ; preds = %119
  %122 = load ptr, ptr %6, align 8, !tbaa !42
  %123 = icmp eq ptr null, %122
  br i1 %123, label %124, label %143

124:                                              ; preds = %121
  br label %125

125:                                              ; preds = %124
  br label %126

126:                                              ; preds = %125
  br label %127

127:                                              ; preds = %126
  %128 = load i64, ptr @H5E_VOL_g, align 8, !tbaa !3
  %129 = load i64, ptr @H5E_CANTGET_g, align 8, !tbaa !3
  %130 = call i32 (ptr, ptr, i32, i64, i64, ptr, ...) @H5E_printf_stack(ptr noundef @.str, ptr noundef @__func__.H5VL_unwrap_object, i32 noundef 948, i64 noundef %128, i64 noundef %129, ptr noundef @.str.21)
  br label %131

131:                                              ; preds = %127
  br label %132

132:                                              ; preds = %131
  store i8 1, ptr %7, align 1, !tbaa !9
  %133 = load i8, ptr %7, align 1, !tbaa !9, !range !14, !noundef !15
  %134 = trunc i8 %133 to i1
  %135 = zext i1 %134 to i8
  store i8 %135, ptr %7, align 1, !tbaa !9
  br label %136

136:                                              ; preds = %132
  br label %137

137:                                              ; preds = %136
  br label %138

138:                                              ; preds = %137
  store ptr null, ptr %6, align 8, !tbaa !42
  br label %147

139:                                              ; No predecessors!
  br label %140

140:                                              ; preds = %139
  br label %141

141:                                              ; preds = %140
  br label %142

142:                                              ; preds = %141
  br label %143

143:                                              ; preds = %142, %121
  br label %146

144:                                              ; preds = %62
  %145 = load ptr, ptr %5, align 8, !tbaa !42
  store ptr %145, ptr %6, align 8, !tbaa !42
  br label %146

146:                                              ; preds = %144, %143
  br label %147

147:                                              ; preds = %146, %119, %138, %41
  br label %148

148:                                              ; preds = %147, %54
  %149 = load ptr, ptr %6, align 8, !tbaa !42
  store ptr %149, ptr %3, align 8
  store i32 1, ptr %9, align 4
  br label %150

150:                                              ; preds = %148, %119
  call void @llvm.lifetime.end.p0(i64 1, ptr %7) #8
  call void @llvm.lifetime.end.p0(i64 8, ptr %6) #8
  %151 = load ptr, ptr %3, align 8
  ret ptr %151
}