; Function Attrs: nounwind uwtable
define ptr @H5VL_unwrap_object(ptr noundef readonly captures(none) %0, ptr noundef %1) local_unnamed_addr #0 {
  %3 = alloca %struct.H5_user_cb_state_t, align 8
  %4 = load i8, ptr @H5VL_init_g, align 1, !tbaa !33, !range !35, !noundef !36
  %5 = trunc nuw i8 %4 to i1
  %6 = load i8, ptr @H5_libterm_g, align 1, !range !35
  %7 = trunc nuw i8 %6 to i1
  %8 = select i1 %5, i1 true, i1 %7
  br i1 %8, label %16, label %9, !prof !37

9:                                                ; preds = %2
  store i8 1, ptr @H5VL_init_g, align 1, !tbaa !33
  %10 = tail call i32 @H5VL__init_package() #7
  %11 = icmp slt i32 %10, 0
  br i1 %11, label %12, label %._crit_edge

._crit_edge:                                      ; preds = %9
  %.pre = load i8, ptr @H5VL_init_g, align 1, !tbaa !33, !range !35
  %.pre17 = load i8, ptr @H5_libterm_g, align 1, !range !35
  %.pre18 = trunc nuw i8 %.pre to i1
  %.pre19 = trunc nuw i8 %.pre17 to i1
  br label %16

12:                                               ; preds = %9
  store i8 0, ptr @H5VL_init_g, align 1, !tbaa !33
  %13 = load i64, ptr @H5E_FUNC_g, align 8, !tbaa !3
  %14 = load i64, ptr @H5E_CANTINIT_g, align 8, !tbaa !3
  %15 = tail call i32 (ptr, ptr, i32, i64, i64, ptr, ...) @H5E_printf_stack(ptr noundef nonnull @.str, ptr noundef nonnull @__func__.H5VL_unwrap_object, i32 noundef 932, i64 noundef %13, i64 noundef %14, ptr noundef nonnull @.str.5) #7
  br label %40

16:                                               ; preds = %._crit_edge, %2
  %.pre-phi20 = phi i1 [ %.pre19, %._crit_edge ], [ %7, %2 ]
  %.pre-phi = phi i1 [ %.pre18, %._crit_edge ], [ %5, %2 ]
  %17 = xor i1 %.pre-phi20, true
  %18 = select i1 %.pre-phi, i1 true, i1 %17
  br i1 %18, label %19, label %40, !prof !37

19:                                               ; preds = %16
  %20 = getelementptr inbounds nuw i8, ptr %0, i64 112
  %21 = load ptr, ptr %20, align 8, !tbaa !52
  %.not = icmp eq ptr %21, null
  br i1 %.not, label %40, label %22

22:                                               ; preds = %19
  call void @llvm.lifetime.start.p0(i64 24, ptr nonnull %3) #7
  %23 = call i32 @H5_user_cb_prepare(ptr noundef nonnull %3) #7
  %24 = icmp slt i32 %23, 0
  br i1 %24, label %.thread, label %25

25:                                               ; preds = %22
  %26 = getelementptr inbounds nuw i8, ptr %0, i64 120
  %27 = load ptr, ptr %26, align 8, !tbaa !53
  %28 = call ptr %27(ptr noundef %1) #7
  %29 = call i32 @H5_user_cb_restore(ptr noundef nonnull %3) #7
  %30 = icmp slt i32 %29, 0
  br i1 %30, label %.thread, label %34

.thread:                                          ; preds = %25, %22
  %H5E_CANTSET_g.sink = phi ptr [ @H5E_CANTSET_g, %22 ], [ @H5E_CANTRESTORE_g, %25 ]
  %.sink = phi i32 [ 941, %22 ], [ 946, %25 ]
  %31 = load i64, ptr @H5E_LIB_g, align 8, !tbaa !3
  %32 = load i64, ptr %H5E_CANTSET_g.sink, align 8, !tbaa !3
  %33 = call i32 (ptr, ptr, i32, i64, i64, ptr, ...) @H5E_printf_stack(ptr noundef nonnull @.str, ptr noundef nonnull @__func__.H5VL_unwrap_object, i32 noundef %.sink, i64 noundef %31, i64 noundef %32, ptr noundef nonnull @.str.2) #7
  call void @llvm.lifetime.end.p0(i64 24, ptr nonnull %3) #7
  br label %40

34:                                               ; preds = %25
  call void @llvm.lifetime.end.p0(i64 24, ptr nonnull %3) #7
  %35 = icmp eq ptr %28, null
  br i1 %35, label %36, label %40

36:                                               ; preds = %34
  %37 = load i64, ptr @H5E_VOL_g, align 8, !tbaa !3
  %38 = load i64, ptr @H5E_CANTGET_g, align 8, !tbaa !3
  %39 = call i32 (ptr, ptr, i32, i64, i64, ptr, ...) @H5E_printf_stack(ptr noundef nonnull @.str, ptr noundef nonnull @__func__.H5VL_unwrap_object, i32 noundef 948, i64 noundef %37, i64 noundef %38, ptr noundef nonnull @.str.21) #7
  br label %40

40:                                               ; preds = %.thread, %34, %16, %36, %12, %19
  %.012 = phi ptr [ null, %12 ], [ %28, %34 ], [ null, %36 ], [ null, %16 ], [ %1, %19 ], [ null, %.thread ]
  ret ptr %.012
}